; Function Attrs: mustprogress nounwind uwtable
define hidden void @_ZN15DirectivesStack5printEP12outputStream(ptr noundef %0) local_unnamed_addr #0 align 2 {
  %2 = load ptr, ptr @DirectivesStack_lock, align 8
  %.not.i.i = icmp eq ptr %2, null
  br i1 %.not.i.i, label %_ZN11MutexLockerC2EP5MutexNS0_18SafepointCheckFlagE.exit, label %3

3:                                                ; preds = %1
  tail call void @_ZN5Mutex28lock_without_safepoint_checkEv(ptr noundef nonnull align 8 dereferenceable(104) %2) #14
  br label %_ZN11MutexLockerC2EP5MutexNS0_18SafepointCheckFlagE.exit

_ZN11MutexLockerC2EP5MutexNS0_18SafepointCheckFlagE.exit: ; preds = %1, %3
  %4 = load ptr, ptr @_ZN15DirectivesStack4_topE, align 8
  %.not6 = icmp eq ptr %4, null
  br i1 %.not6, label %._crit_edge, label %.lr.ph

.lr.ph:                                           ; preds = %_ZN11MutexLockerC2EP5MutexNS0_18SafepointCheckFlagE.exit, %.lr.ph
  %.07 = phi ptr [ %5, %.lr.ph ], [ %4, %_ZN11MutexLockerC2EP5MutexNS0_18SafepointCheckFlagE.exit ]
  tail call void @_ZN18CompilerDirectives5printEP12outputStream(ptr noundef nonnull align 8 dereferenceable(40) %.07, ptr noundef %0)
  %5 = load ptr, ptr %.07, align 8
  tail call void @_ZN12outputStream2crEv(ptr noundef nonnull align 8 dereferenceable(56) %0) #14
  %.not = icmp eq ptr %5, null
  br i1 %.not, label %._crit_edge, label %.lr.ph, !llvm.loop !27

._crit_edge:                                      ; preds = %.lr.ph, %_ZN11MutexLockerC2EP5MutexNS0_18SafepointCheckFlagE.exit
  br i1 %.not.i.i, label %_ZN11MutexLockerD2Ev.exit, label %6

6:                                                ; preds = %._crit_edge
  tail call void @_ZN5Mutex6unlockEv(ptr noundef nonnull align 8 dereferenceable(104) %2) #14
  br label %_ZN11MutexLockerD2Ev.exit

_ZN11MutexLockerD2Ev.exit:                        ; preds = %._crit_edge, %6
  ret void
}